target datalayout = "e-m:e-p270:32:32-p271:32:32-p272:64:64-i64:64-i128:128-f80:128-n8:16:32:64-S128"
target triple = "x86_64-pc-linux-gnu"

@.str.1 = private unnamed_addr constant [1 x i8] zeroinitializer, align 1

; Function Attrs: null_pointer_is_valid sspstrong uwtable
define i32 @get_CDR_ulong(ptr noundef %0, ptr noundef %1, i1 noundef zeroext %2, i32 noundef %3) #0 {
  %5 = alloca ptr, align 8
  %6 = alloca ptr, align 8
  %7 = alloca i8, align 1
  %8 = alloca i32, align 4
  %9 = alloca i32, align 4
  store ptr %0, ptr %5, align 8
  store ptr %1, ptr %6, align 8
  %10 = zext i1 %2 to i8
  store i8 %10, ptr %7, align 1
  store i32 %3, ptr %8, align 4
  call void @llvm.lifetime.start.p0(i64 4, ptr %9) #14
  br label %11

11:                                               ; preds = %18, %4
  %12 = load ptr, ptr %6, align 8
  %13 = load i32, ptr %12, align 4
  %14 = load i32, ptr %8, align 4
  %15 = add i32 %13, %14
  %16 = srem i32 %15, 4
  %17 = icmp ne i32 %16, 0
  br i1 %17, label %18, label %22

18:                                               ; preds = %11
  %19 = load ptr, ptr %6, align 8
  %20 = load i32, ptr %19, align 4
  %21 = add i32 %20, 1
  store i32 %21, ptr %19, align 4
  br label %11, !llvm.loop !10

22:                                               ; preds = %11
  %23 = load i8, ptr %7, align 1, !range !8, !noundef !9
  %24 = trunc i8 %23 to i1
  br i1 %24, label %25, label %30

25:                                               ; preds = %22
  %26 = load ptr, ptr %5, align 8
  %27 = load ptr, ptr %6, align 8
  %28 = load i32, ptr %27, align 4
  %29 = call i32 @tvb_get_ntohl(ptr noundef %26, i32 noundef %28)
  br label %35

30:                                               ; preds = %22
  %31 = load ptr, ptr %5, align 8
  %32 = load ptr, ptr %6, align 8
  %33 = load i32, ptr %32, align 4
  %34 = call i32 @tvb_get_letohl(ptr noundef %31, i32 noundef %33)
  br label %35

35:                                               ; preds = %30, %25
  %36 = phi i32 [ %29, %25 ], [ %34, %30 ]
  store i32 %36, ptr %9, align 4
  %37 = load ptr, ptr %6, align 8
  %38 = load i32, ptr %37, align 4
  %39 = add i32 %38, 4
  store i32 %39, ptr %37, align 4
  %40 = load i32, ptr %9, align 4
  call void @llvm.lifetime.end.p0(i64 4, ptr %9) #14
  ret i32 %40
}

; Function Attrs: null_pointer_is_valid sspstrong uwtable
define i32 @get_CDR_string(ptr noundef %0, ptr noundef %1, ptr noundef %2, i1 noundef zeroext %3, i32 noundef %4) #0 {
  %6 = alloca ptr, align 8
  %7 = alloca ptr, align 8
  %8 = alloca ptr, align 8
  %9 = alloca i8, align 1
  %10 = alloca i32, align 4
  %11 = alloca i32, align 4
  %12 = alloca i32, align 4
  store ptr %0, ptr %6, align 8
  store ptr %1, ptr %7, align 8
  store ptr %2, ptr %8, align 8
  %13 = zext i1 %3 to i8
  store i8 %13, ptr %9, align 1
  store i32 %4, ptr %10, align 4
  call void @llvm.lifetime.start.p0(i64 4, ptr %11) #14
  call void @llvm.lifetime.start.p0(i64 4, ptr %12) #14
  %14 = load ptr, ptr %6, align 8
  %15 = load ptr, ptr %8, align 8
  %16 = load i8, ptr %9, align 1, !range !8, !noundef !9
  %17 = trunc i8 %16 to i1
  %18 = load i32, ptr %10, align 4
  %19 = call i32 @get_CDR_ulong(ptr noundef %14, ptr noundef %15, i1 noundef zeroext %17, i32 noundef %18)
  store i32 %19, ptr %11, align 4
  %20 = load ptr, ptr %6, align 8
  %21 = load ptr, ptr %8, align 8
  %22 = load i32, ptr %21, align 4
  %23 = sub i32 %22, 4
  %24 = call i32 @tvb_reported_length_remaining(ptr noundef %20, i32 noundef %23)
  store i32 %24, ptr %12, align 4
  %25 = load i32, ptr %11, align 4
  %26 = load i32, ptr %12, align 4
  %27 = icmp ugt i32 %25, %26
  br i1 %27, label %28, label %30

28:                                               ; preds = %5
  %29 = load i32, ptr %12, align 4
  store i32 %29, ptr %11, align 4
  br label %30

30:                                               ; preds = %28, %5
  %31 = call ptr @wmem_packet_scope()
  %32 = load ptr, ptr %6, align 8
  %33 = load ptr, ptr %8, align 8
  %34 = load i32, ptr %33, align 4
  %35 = load i32, ptr %11, align 4
  %36 = call ptr @tvb_get_string_enc(ptr noundef %31, ptr noundef %32, i32 noundef %34, i32 noundef %35, i32 noundef 10)
  %37 = load ptr, ptr %7, align 8
  store ptr %36, ptr %37, align 8
  %38 = load i32, ptr %11, align 4
  %39 = load ptr, ptr %8, align 8
  %40 = load i32, ptr %39, align 4
  %41 = add i32 %40, %38
  store i32 %41, ptr %39, align 4
  %42 = load i32, ptr %11, align 4
  call void @llvm.lifetime.end.p0(i64 4, ptr %12) #14
  call void @llvm.lifetime.end.p0(i64 4, ptr %11) #14
  ret i32 %42
}

; Function Attrs: null_pointer_is_valid sspstrong uwtable
define void @giop_add_CDR_string(ptr noundef %0, ptr noundef %1, ptr noundef %2, i1 noundef zeroext %3, i32 noundef %4, i32 noundef %5) #0 {
  %7 = alloca ptr, align 8
  %8 = alloca ptr, align 8
  %9 = alloca ptr, align 8
  %10 = alloca i8, align 1
  %11 = alloca i32, align 4
  %12 = alloca i32, align 4
  %13 = alloca i32, align 4
  %14 = alloca ptr, align 8
  store ptr %0, ptr %7, align 8
  store ptr %1, ptr %8, align 8
  store ptr %2, ptr %9, align 8
  %15 = zext i1 %3 to i8
  store i8 %15, ptr %10, align 1
  store i32 %4, ptr %11, align 4
  store i32 %5, ptr %12, align 4
  call void @llvm.lifetime.start.p0(i64 4, ptr %13) #14
  call void @llvm.lifetime.start.p0(i64 8, ptr %14) #14
  store ptr null, ptr %14, align 8
  %16 = load ptr, ptr %8, align 8
  %17 = load ptr, ptr %9, align 8
  %18 = load i8, ptr %10, align 1, !range !8, !noundef !9
  %19 = trunc i8 %18 to i1
  %20 = load i32, ptr %11, align 4
  %21 = call i32 @get_CDR_string(ptr noundef %16, ptr noundef %14, ptr noundef %17, i1 noundef zeroext %19, i32 noundef %20)
  store i32 %21, ptr %13, align 4
  %22 = load ptr, ptr %7, align 8
  %23 = load i32, ptr %12, align 4
  %24 = load ptr, ptr %8, align 8
  %25 = load ptr, ptr %9, align 8
  %26 = load i32, ptr %25, align 4
  %27 = load i32, ptr %13, align 4
  %28 = sub i32 %26, %27
  %29 = load i32, ptr %13, align 4
  %30 = load i32, ptr %13, align 4
  %31 = icmp ugt i32 %30, 0
  br i1 %31, label %32, label %34

32:                                               ; preds = %6
  %33 = load ptr, ptr %14, align 8
  br label %35

34:                                               ; preds = %6
  br label %35

35:                                               ; preds = %34, %32
  %36 = phi ptr [ %33, %32 ], [ @.str.1, %34 ]
  %37 = call ptr @proto_tree_add_string(ptr noundef %22, i32 noundef %23, ptr noundef %24, i32 noundef %28, i32 noundef %29, ptr noundef %36)
  call void @llvm.lifetime.end.p0(i64 8, ptr %14) #14
  call void @llvm.lifetime.end.p0(i64 4, ptr %13) #14
  ret void
}