; Function Attrs: null_pointer_is_valid sspstrong uwtable
define void @giop_add_CDR_string(ptr noundef %0, ptr noundef %1, ptr noundef captures(none) %2, i1 noundef zeroext %3, i32 noundef %4, i32 noundef %5) local_unnamed_addr #0 {
  %.promoted.i.i = load i32, ptr %2, align 4
  %7 = add i32 %.promoted.i.i, %4
  %8 = and i32 %7, 3
  %.not9.i.i = icmp eq i32 %8, 0
  br i1 %.not9.i.i, label %10, label %.lr.ph.preheader.i.i

.lr.ph.preheader.i.i:                             ; preds = %6
  %9 = or i32 %7, -4
  %sub.i = sub i32 %.promoted.i.i, %9
  store i32 %sub.i, ptr %2, align 4
  br label %10

10:                                               ; preds = %.lr.ph.preheader.i.i, %6
  %.lcssa.i.i = phi i32 [ %sub.i, %.lr.ph.preheader.i.i ], [ %.promoted.i.i, %6 ]
  br i1 %3, label %11, label %13

11:                                               ; preds = %10
  %12 = tail call i32 @tvb_get_ntohl(ptr noundef %1, i32 noundef %.lcssa.i.i)
  br label %get_CDR_string.exit

13:                                               ; preds = %10
  %14 = tail call i32 @tvb_get_letohl(ptr noundef %1, i32 noundef %.lcssa.i.i)
  br label %get_CDR_string.exit

get_CDR_string.exit:                              ; preds = %11, %13
  %15 = phi i32 [ %12, %11 ], [ %14, %13 ]
  %16 = load i32, ptr %2, align 4
  %17 = add i32 %16, 4
  store i32 %17, ptr %2, align 4
  %18 = tail call i32 @tvb_reported_length_remaining(ptr noundef %1, i32 noundef %16)
  %spec.select.i = tail call i32 @llvm.umin.i32(i32 %15, i32 %18)
  %19 = tail call ptr @wmem_packet_scope()
  %20 = load i32, ptr %2, align 4
  %21 = tail call ptr @tvb_get_string_enc(ptr noundef %19, ptr noundef %1, i32 noundef %20, i32 noundef %spec.select.i, i32 noundef 10)
  %22 = load i32, ptr %2, align 4
  %23 = add i32 %22, %spec.select.i
  store i32 %23, ptr %2, align 4
  %.not = icmp eq i32 %spec.select.i, 0
  %24 = select i1 %.not, ptr @.str.1, ptr %21
  %25 = tail call ptr @proto_tree_add_string(ptr noundef %0, i32 noundef %5, ptr noundef %1, i32 noundef %22, i32 noundef %spec.select.i, ptr noundef %24)
  ret void
}